#include <math.h>
#include <stdio.h>
#include <stdlib.h>
#include <string.h>

int f(int a,int min)
{
	int result=1,i;
	if(a<min)
		return 0;
	else
	{
		for(i=min;i<=a;i++)
		{
			if(a%i==0)
			{
				
				result+=f(a/i,i);
				
			}
		}
		return result;
	}
}
int main()
{
	int n,a,i;
	scanf("%d",&n);
	for(i=0;i<n;i++)
	{
		scanf("%d",&a);
		printf("%d\n",f(a,2));
	}
	return 0;

}